; ModuleID = 'bench/openusd/original/defineResolver.cpp.ll'
source_filename = "bench/openusd/original/defineResolver.cpp.ll"
target datalayout = "e-m:e-p270:32:32-p271:32:32-p272:64:64-i64:64-i128:128-f80:128-n8:16:32:64-S128"
target triple = "x86_64-pc-linux-gnu"

@_ZTVN32pxrInternal_v0_24__pxrReserved__22Ar_ResolverFactoryBaseE = unnamed_addr constant { [5 x ptr] } { [5 x ptr] [ptr null, ptr @_ZTIN32pxrInternal_v0_24__pxrReserved__22Ar_ResolverFactoryBaseE, ptr @_ZN32pxrInternal_v0_24__pxrReserved__22Ar_ResolverFactoryBaseD1Ev, ptr @_ZN32pxrInternal_v0_24__pxrReserved__22Ar_ResolverFactoryBaseD0Ev, ptr @__cxa_pure_virtual] }, align 8
@_ZTVN10__cxxabiv120__si_class_type_infoE = external global [0 x ptr]
@_ZTSN32pxrInternal_v0_24__pxrReserved__22Ar_ResolverFactoryBaseE = constant [61 x i8] c"N32pxrInternal_v0_24__pxrReserved__22Ar_ResolverFactoryBaseE\00", align 1
@_ZTIN32pxrInternal_v0_24__pxrReserved__6TfType11FactoryBaseE = external constant ptr
@_ZTIN32pxrInternal_v0_24__pxrReserved__22Ar_ResolverFactoryBaseE = constant { ptr, ptr, ptr } { ptr getelementptr inbounds (ptr, ptr @_ZTVN10__cxxabiv120__si_class_type_infoE, i64 2), ptr @_ZTSN32pxrInternal_v0_24__pxrReserved__22Ar_ResolverFactoryBaseE, ptr @_ZTIN32pxrInternal_v0_24__pxrReserved__6TfType11FactoryBaseE }, align 8

@_ZN32pxrInternal_v0_24__pxrReserved__22Ar_ResolverFactoryBaseD1Ev = unnamed_addr alias void (ptr), ptr @_ZN32pxrInternal_v0_24__pxrReserved__22Ar_ResolverFactoryBaseD2Ev

; Function Attrs: mustprogress nounwind uwtable
define void @_ZN32pxrInternal_v0_24__pxrReserved__22Ar_ResolverFactoryBaseD2Ev(ptr noundef nonnull align 8 dereferenceable(8) %0) unnamed_addr #0 align 2 {
  tail call void @_ZN32pxrInternal_v0_24__pxrReserved__6TfType11FactoryBaseD2Ev(ptr noundef nonnull align 8 dereferenceable(8) %0) #4
  ret void
}

; Function Attrs: nounwind
declare void @_ZN32pxrInternal_v0_24__pxrReserved__6TfType11FactoryBaseD2Ev(ptr noundef nonnull align 8 dereferenceable(8)) unnamed_addr #1

; Function Attrs: cold mustprogress noreturn nounwind memory(inaccessiblemem: write) uwtable
define void @_ZN32pxrInternal_v0_24__pxrReserved__22Ar_ResolverFactoryBaseD0Ev(ptr nocapture nonnull readnone align 8 %0) unnamed_addr #2 align 2 {
  tail call void @llvm.trap() #5
  unreachable
}

; Function Attrs: cold noreturn nounwind memory(inaccessiblemem: write)
declare void @llvm.trap() #3

declare void @__cxa_pure_virtual() unnamed_addr


!llvm.module.flags = !{!0, !1, !2, !3}

!0 = !{i32 1, !"wchar_size", i32 4}
!1 = !{i32 8, !"PIC Level", i32 2}
!2 = !{i32 7, !"uwtable", i32 2}
!3 = !{i32 7, !"frame-pointer", i32 2}
